(i__main__
LogFile
p0
(dp1
S'_installed_files'
p2
(dp3
S'../../Trigger/TrigMonitoring/TrigCostMonitor/genConf/TrigCostMonitor'
p4
(dp5
S'../../../Trigger/TrigMonitoring/TrigCostMonitor/genConf/TrigCostMonitor/TrigCostMonitorConf.py'
p6
S'../../../../InstallArea/python/TrigCostMonitor/TrigCostMonitorConf.py'
p7
ssS'../../../../../../../../../../cvmfs/atlas.cern.ch/repo/sw/software/x86_64-slc6-gcc48-opt/20.3.5/GAUDI/v25r3p2-lcg72a/GaudiPolicy/cmt/fragments/__init__.py'
p8
S'../../../../InstallArea/python/TrigCostMonitor/__init__.py'
p9
ssb.